target datalayout = "e-m:e-p270:32:32-p271:32:32-p272:64:64-i64:64-i128:128-f80:128-n8:16:32:64-S128"
target triple = "x86_64-pc-linux-gnu"

%"class.OopStorage::OopFn" = type { ptr }
%"class.OopStorage::SkipNullFn" = type { %"class.OopStorage::OopFn" }
%class.Semaphore = type { %class.PosixSemaphore }
%class.PosixSemaphore = type { %union.sem_t }
%union.sem_t = type { i64, [24 x i8] }
%class.OopStorage = type <{ ptr, ptr, %"class.OopStorage::AllocationList", ptr, ptr, ptr, ptr, i64, %class.SingleWriterSynchronizer, i32, i8, i8, [2 x i8] }>
%"class.OopStorage::AllocationList" = type { ptr, ptr }
%class.SingleWriterSynchronizer = type { i32, [2 x i32], i32, %class.Semaphore }
%"class.OopStorage::Block" = type { [64 x ptr], i64, i64, ptr, i64, %"class.OopStorage::AllocationListEntry", ptr, i64 }
%"class.OopStorage::AllocationListEntry" = type { ptr, ptr }

@_ZN10JNIHandles20_weak_global_handlesE = hidden global ptr null, align 8

; Function Attrs: mustprogress nounwind uwtable
define linkonce_odr hidden noundef i64 @_Z10align_downImmTnNSt9enable_ifIXcvbsr3std11is_integralIT_EE5valueEiE4typeELi0EES1_S1_T0_(i64 noundef %0, i64 noundef %1) #1 comdat {
  %3 = alloca i64, align 8
  %4 = alloca i64, align 8
  %5 = alloca i64, align 8
  store i64 %0, ptr %3, align 8
  store i64 %1, ptr %4, align 8
  %6 = load i64, ptr %3, align 8
  %7 = load i64, ptr %4, align 8
  %8 = call noundef i64 @_ZL14alignment_maskImTnNSt9enable_ifIXcvbsr3std11is_integralIT_EE5valueEiE4typeELi0EES1_S1_(i64 noundef %7)
  %9 = xor i64 %8, -1
  %10 = and i64 %6, %9
  store i64 %10, ptr %5, align 8
  %11 = load i64, ptr %5, align 8
  ret i64 %11
}

; Function Attrs: mustprogress nounwind uwtable
define linkonce_odr hidden noundef i64 @_Z12checked_castImmET_T0_(i64 noundef %0) #1 comdat {
  %2 = alloca i64, align 8
  %3 = alloca i64, align 8
  store i64 %0, ptr %2, align 8
  %4 = load i64, ptr %2, align 8
  store i64 %4, ptr %3, align 8
  %5 = load i64, ptr %3, align 8
  ret i64 %5
}

; Function Attrs: mustprogress nounwind uwtable
define internal noundef i64 @_ZL14alignment_maskImTnNSt9enable_ifIXcvbsr3std11is_integralIT_EE5valueEiE4typeELi0EES1_S1_(i64 noundef %0) #1 {
  %2 = alloca i64, align 8
  store i64 %0, ptr %2, align 8
  %3 = load i64, ptr %2, align 8
  %4 = sub i64 %3, 1
  ret i64 %4
}

; Function Attrs: mustprogress nounwind uwtable
define linkonce_odr hidden noundef i64 @_Z8align_upImmTnNSt9enable_ifIXcvbsr3std11is_integralIT_EE5valueEiE4typeELi0EES1_S1_T0_(i64 noundef %0, i64 noundef %1) #1 comdat {
  %3 = alloca i64, align 8
  %4 = alloca i64, align 8
  %5 = alloca i64, align 8
  store i64 %0, ptr %3, align 8
  store i64 %1, ptr %4, align 8
  %6 = load i64, ptr %3, align 8
  %7 = load i64, ptr %4, align 8
  %8 = call noundef i64 @_ZL14alignment_maskImTnNSt9enable_ifIXcvbsr3std11is_integralIT_EE5valueEiE4typeELi0EES1_S1_(i64 noundef %7)
  %9 = add i64 %6, %8
  %10 = call noundef i64 @_Z12checked_castImmET_T0_(i64 noundef %9)
  store i64 %10, ptr %5, align 8
  %11 = load i64, ptr %5, align 8
  %12 = load i64, ptr %4, align 8
  %13 = call noundef i64 @_Z10align_downImmTnNSt9enable_ifIXcvbsr3std11is_integralIT_EE5valueEiE4typeELi0EES1_S1_T0_(i64 noundef %11, i64 noundef %12)
  ret i64 %13
}

; Function Attrs: mustprogress nounwind uwtable
define linkonce_odr hidden noundef zeroext i1 @_ZNK10OopStorage5OopFnI10OopClosureEclIPP7oopDescEEbT_(ptr noundef nonnull align 8 dereferenceable(8) %0, ptr noundef %1) #1 comdat align 2 {
  %3 = alloca ptr, align 8
  %4 = alloca ptr, align 8
  store ptr %0, ptr %3, align 8
  store ptr %1, ptr %4, align 8
  %5 = load ptr, ptr %3, align 8
  %6 = getelementptr inbounds %"class.OopStorage::OopFn", ptr %5, i32 0, i32 0
  %7 = load ptr, ptr %6, align 8
  %8 = load ptr, ptr %4, align 8
  %9 = load ptr, ptr %7, align 8
  %10 = getelementptr inbounds ptr, ptr %9, i64 0
  %11 = load ptr, ptr %10, align 8
  call void %11(ptr noundef nonnull align 8 dereferenceable(8) %7, ptr noundef %8)
  ret i1 true
}

; Function Attrs: mustprogress nounwind uwtable
define linkonce_odr hidden void @_ZNK10OopStorage5Block11check_indexEj(ptr noundef nonnull align 8 dereferenceable(576) %0, i32 noundef %1) #1 comdat align 2 {
  %3 = alloca ptr, align 8
  %4 = alloca i32, align 4
  store ptr %0, ptr %3, align 8
  store i32 %1, ptr %4, align 4
  ret void
}

; Function Attrs: mustprogress nounwind uwtable
define linkonce_odr hidden noundef i32 @_Z23count_trailing_zeros_64m(i64 noundef %0) #1 comdat {
  %2 = alloca i64, align 8
  store i64 %0, ptr %2, align 8
  %3 = load i64, ptr %2, align 8
  %4 = call i64 @llvm.cttz.i64(i64 %3, i1 true)
  %5 = trunc i64 %4 to i32
  ret i32 %5
}

; Function Attrs: mustprogress nounwind uwtable
define linkonce_odr hidden noundef i64 @_ZN10OopStorage11ActiveArray13blocks_offsetEv() #1 comdat align 2 {
  %1 = call noundef i64 @_Z8align_upImmTnNSt9enable_ifIXcvbsr3std11is_integralIT_EE5valueEiE4typeELi0EES1_S1_T0_(i64 noundef 24, i64 noundef 8)
  ret i64 %1
}

; Function Attrs: mustprogress nounwind uwtable
define linkonce_odr hidden noundef zeroext i1 @_ZNK10OopStorage10SkipNullFnINS_5OopFnI10OopClosureEEEclIPP7oopDescEEbT_(ptr noundef nonnull align 8 dereferenceable(8) %0, ptr noundef %1) #1 comdat align 2 {
  %3 = alloca ptr, align 8
  %4 = alloca ptr, align 8
  store ptr %0, ptr %3, align 8
  store ptr %1, ptr %4, align 8
  %5 = load ptr, ptr %3, align 8
  %6 = load ptr, ptr %4, align 8
  %7 = load ptr, ptr %6, align 8
  %8 = icmp ne ptr %7, null
  br i1 %8, label %9, label %13

9:                                                ; preds = %2
  %10 = getelementptr inbounds %"class.OopStorage::SkipNullFn", ptr %5, i32 0, i32 0
  %11 = load ptr, ptr %4, align 8
  %12 = call noundef zeroext i1 @_ZNK10OopStorage5OopFnI10OopClosureEclIPP7oopDescEEbT_(ptr noundef nonnull align 8 dereferenceable(8) %10, ptr noundef %11)
  br label %14

13:                                               ; preds = %2
  br label %14

14:                                               ; preds = %13, %9
  %15 = phi i1 [ %12, %9 ], [ true, %13 ]
  ret i1 %15
}

; Function Attrs: mustprogress nounwind uwtable
define linkonce_odr hidden noundef ptr @_ZN10OopStorage5Block11get_pointerEj(ptr noundef nonnull align 8 dereferenceable(576) %0, i32 noundef %1) #1 comdat align 2 {
  %3 = alloca ptr, align 8
  %4 = alloca i32, align 4
  store ptr %0, ptr %3, align 8
  store i32 %1, ptr %4, align 4
  %5 = load ptr, ptr %3, align 8
  %6 = load i32, ptr %4, align 4
  call void @_ZNK10OopStorage5Block11check_indexEj(ptr noundef nonnull align 8 dereferenceable(576) %5, i32 noundef %6)
  %7 = getelementptr inbounds %"class.OopStorage::Block", ptr %5, i32 0, i32 0
  %8 = load i32, ptr %4, align 4
  %9 = zext i32 %8 to i64
  %10 = getelementptr inbounds [64 x ptr], ptr %7, i64 0, i64 %9
  ret ptr %10
}

; Function Attrs: mustprogress nounwind uwtable
define linkonce_odr hidden noundef i64 @_ZNK10OopStorage5Block17bitmask_for_indexEj(ptr noundef nonnull align 8 dereferenceable(576) %0, i32 noundef %1) #1 comdat align 2 {
  %3 = alloca ptr, align 8
  %4 = alloca i32, align 4
  store ptr %0, ptr %3, align 8
  store i32 %1, ptr %4, align 4
  %5 = load ptr, ptr %3, align 8
  %6 = load i32, ptr %4, align 4
  call void @_ZNK10OopStorage5Block11check_indexEj(ptr noundef nonnull align 8 dereferenceable(576) %5, i32 noundef %6)
  %7 = load i32, ptr %4, align 4
  %8 = zext i32 %7 to i64
  %9 = shl i64 1, %8
  ret i64 %9
}

; Function Attrs: mustprogress nounwind uwtable
define linkonce_odr hidden noundef i32 @_Z20count_trailing_zerosImTnNSt9enable_ifIXcvbsr3std11is_integralIT_EE5valueEiE4typeELi0ETnNS0_IXcvblestS1_Lm8EEiE4typeELi0EEjS1_(i64 noundef %0) #1 comdat {
  %2 = alloca i64, align 8
  store i64 %0, ptr %2, align 8
  %3 = load i64, ptr %2, align 8
  %4 = call noundef i32 @_Z23count_trailing_zeros_64m(i64 noundef %3)
  ret i32 %4
}

; Function Attrs: mustprogress nounwind uwtable
define linkonce_odr hidden noundef i64 @_ZNK10OopStorage5Block17allocated_bitmaskEv(ptr noundef nonnull align 8 dereferenceable(576) %0) #1 comdat align 2 {
  %2 = alloca ptr, align 8
  store ptr %0, ptr %2, align 8
  %3 = load ptr, ptr %2, align 8
  %4 = getelementptr inbounds %"class.OopStorage::Block", ptr %3, i32 0, i32 1
  %5 = load volatile i64, ptr %4, align 8
  ret i64 %5
}

; Function Attrs: mustprogress nounwind uwtable
define linkonce_odr hidden noundef ptr @_ZNK10OopStorage11ActiveArray8base_ptrEv(ptr noundef nonnull align 8 dereferenceable(20) %0) #1 comdat align 2 {
  %2 = alloca ptr, align 8
  %3 = alloca ptr, align 8
  store ptr %0, ptr %2, align 8
  %4 = load ptr, ptr %2, align 8
  %5 = call noundef i64 @_ZN10OopStorage11ActiveArray13blocks_offsetEv()
  %6 = getelementptr inbounds i8, ptr %4, i64 %5
  store ptr %6, ptr %3, align 8
  %7 = load ptr, ptr %3, align 8
  ret ptr %7
}

; Function Attrs: mustprogress nounwind uwtable
define linkonce_odr hidden noundef zeroext i1 @_ZN10OopStorage5Block12iterate_implINS_10SkipNullFnINS_5OopFnI10OopClosureEEEEPS0_EEbT_T0_(ptr %0, ptr noundef %1) #1 comdat align 2 {
  %3 = alloca i1, align 1
  %4 = alloca %"class.OopStorage::SkipNullFn", align 8
  %5 = alloca ptr, align 8
  %6 = alloca i64, align 8
  %7 = alloca i32, align 4
  %8 = getelementptr inbounds %"class.OopStorage::SkipNullFn", ptr %4, i32 0, i32 0
  %9 = getelementptr inbounds %"class.OopStorage::OopFn", ptr %8, i32 0, i32 0
  store ptr %0, ptr %9, align 8
  store ptr %1, ptr %5, align 8
  %10 = load ptr, ptr %5, align 8
  %11 = call noundef i64 @_ZNK10OopStorage5Block17allocated_bitmaskEv(ptr noundef nonnull align 8 dereferenceable(576) %10)
  store i64 %11, ptr %6, align 8
  br label %12

12:                                               ; preds = %28, %2
  %13 = load i64, ptr %6, align 8
  %14 = icmp ne i64 %13, 0
  br i1 %14, label %15, label %29

15:                                               ; preds = %12
  %16 = load i64, ptr %6, align 8
  %17 = call noundef i32 @_Z20count_trailing_zerosImTnNSt9enable_ifIXcvbsr3std11is_integralIT_EE5valueEiE4typeELi0ETnNS0_IXcvblestS1_Lm8EEiE4typeELi0EEjS1_(i64 noundef %16)
  store i32 %17, ptr %7, align 4
  %18 = load ptr, ptr %5, align 8
  %19 = load i32, ptr %7, align 4
  %20 = call noundef i64 @_ZNK10OopStorage5Block17bitmask_for_indexEj(ptr noundef nonnull align 8 dereferenceable(576) %18, i32 noundef %19)
  %21 = load i64, ptr %6, align 8
  %22 = xor i64 %21, %20
  store i64 %22, ptr %6, align 8
  %23 = load ptr, ptr %5, align 8
  %24 = load i32, ptr %7, align 4
  %25 = call noundef ptr @_ZN10OopStorage5Block11get_pointerEj(ptr noundef nonnull align 8 dereferenceable(576) %23, i32 noundef %24)
  %26 = call noundef zeroext i1 @_ZNK10OopStorage10SkipNullFnINS_5OopFnI10OopClosureEEEclIPP7oopDescEEbT_(ptr noundef nonnull align 8 dereferenceable(8) %4, ptr noundef %25)
  br i1 %26, label %28, label %27

27:                                               ; preds = %15
  store i1 false, ptr %3, align 1
  br label %30

28:                                               ; preds = %15
  br label %12, !llvm.loop !25

29:                                               ; preds = %12
  store i1 true, ptr %3, align 1
  br label %30

30:                                               ; preds = %29, %27
  %31 = load i1, ptr %3, align 1
  ret i1 %31
}

; Function Attrs: mustprogress nounwind uwtable
define linkonce_odr hidden noundef ptr @_ZNK10OopStorage11ActiveArray9block_ptrEm(ptr noundef nonnull align 8 dereferenceable(20) %0, i64 noundef %1) #1 comdat align 2 {
  %3 = alloca ptr, align 8
  %4 = alloca i64, align 8
  store ptr %0, ptr %3, align 8
  store i64 %1, ptr %4, align 8
  %5 = load ptr, ptr %3, align 8
  %6 = call noundef ptr @_ZNK10OopStorage11ActiveArray8base_ptrEv(ptr noundef nonnull align 8 dereferenceable(20) %5)
  %7 = load i64, ptr %4, align 8
  %8 = getelementptr inbounds ptr, ptr %6, i64 %7
  ret ptr %8
}

; Function Attrs: mustprogress nounwind uwtable
define linkonce_odr hidden noundef zeroext i1 @_ZN10OopStorage5Block7iterateINS_10SkipNullFnINS_5OopFnI10OopClosureEEEEEEbT_(ptr noundef nonnull align 8 dereferenceable(576) %0, ptr %1) #1 comdat align 2 {
  %3 = alloca %"class.OopStorage::SkipNullFn", align 8
  %4 = alloca ptr, align 8
  %5 = alloca %"class.OopStorage::SkipNullFn", align 8
  %6 = getelementptr inbounds %"class.OopStorage::SkipNullFn", ptr %3, i32 0, i32 0
  %7 = getelementptr inbounds %"class.OopStorage::OopFn", ptr %6, i32 0, i32 0
  store ptr %1, ptr %7, align 8
  store ptr %0, ptr %4, align 8
  %8 = load ptr, ptr %4, align 8
  call void @llvm.memcpy.p0.p0.i64(ptr align 8 %5, ptr align 8 %3, i64 8, i1 false)
  %9 = getelementptr inbounds %"class.OopStorage::SkipNullFn", ptr %5, i32 0, i32 0
  %10 = getelementptr inbounds %"class.OopStorage::OopFn", ptr %9, i32 0, i32 0
  %11 = load ptr, ptr %10, align 8
  %12 = call noundef zeroext i1 @_ZN10OopStorage5Block12iterate_implINS_10SkipNullFnINS_5OopFnI10OopClosureEEEEPS0_EEbT_T0_(ptr %11, ptr noundef %8)
  ret i1 %12
}

; Function Attrs: mustprogress nounwind uwtable
define linkonce_odr hidden noundef ptr @_ZNK10OopStorage11ActiveArray2atEm(ptr noundef nonnull align 8 dereferenceable(20) %0, i64 noundef %1) #1 comdat align 2 {
  %3 = alloca ptr, align 8
  %4 = alloca i64, align 8
  store ptr %0, ptr %3, align 8
  store i64 %1, ptr %4, align 8
  %5 = load ptr, ptr %3, align 8
  %6 = load i64, ptr %4, align 8
  %7 = call noundef ptr @_ZNK10OopStorage11ActiveArray9block_ptrEm(ptr noundef nonnull align 8 dereferenceable(20) %5, i64 noundef %6)
  %8 = load ptr, ptr %7, align 8
  ret ptr %8
}

; Function Attrs: mustprogress nounwind uwtable
define linkonce_odr hidden noundef zeroext i1 @_ZN10OopStorage12iterate_implINS_10SkipNullFnINS_5OopFnI10OopClosureEEEES_EEbT_PT0_(ptr %0, ptr noundef %1) #1 comdat align 2 {
  %3 = alloca i1, align 1
  %4 = alloca %"class.OopStorage::SkipNullFn", align 8
  %5 = alloca ptr, align 8
  %6 = alloca ptr, align 8
  %7 = alloca i64, align 8
  %8 = alloca i64, align 8
  %9 = alloca ptr, align 8
  %10 = alloca %"class.OopStorage::SkipNullFn", align 8
  %11 = getelementptr inbounds %"class.OopStorage::SkipNullFn", ptr %4, i32 0, i32 0
  %12 = getelementptr inbounds %"class.OopStorage::OopFn", ptr %11, i32 0, i32 0
  store ptr %0, ptr %12, align 8
  store ptr %1, ptr %5, align 8
  %13 = load ptr, ptr %5, align 8
  %14 = getelementptr inbounds %class.OopStorage, ptr %13, i32 0, i32 1
  %15 = load ptr, ptr %14, align 8
  store ptr %15, ptr %6, align 8
  %16 = load ptr, ptr %6, align 8
  %17 = call noundef i64 @_ZNK10OopStorage11ActiveArray11block_countEv(ptr noundef nonnull align 8 dereferenceable(20) %16)
  store i64 %17, ptr %7, align 8
  store i64 0, ptr %8, align 8
  br label %18

18:                                               ; preds = %33, %2
  %19 = load i64, ptr %8, align 8
  %20 = load i64, ptr %7, align 8
  %21 = icmp ult i64 %19, %20
  br i1 %21, label %22, label %36

22:                                               ; preds = %18
  %23 = load ptr, ptr %6, align 8
  %24 = load i64, ptr %8, align 8
  %25 = call noundef ptr @_ZNK10OopStorage11ActiveArray2atEm(ptr noundef nonnull align 8 dereferenceable(20) %23, i64 noundef %24)
  store ptr %25, ptr %9, align 8
  %26 = load ptr, ptr %9, align 8
  call void @llvm.memcpy.p0.p0.i64(ptr align 8 %10, ptr align 8 %4, i64 8, i1 false)
  %27 = getelementptr inbounds %"class.OopStorage::SkipNullFn", ptr %10, i32 0, i32 0
  %28 = getelementptr inbounds %"class.OopStorage::OopFn", ptr %27, i32 0, i32 0
  %29 = load ptr, ptr %28, align 8
  %30 = call noundef zeroext i1 @_ZN10OopStorage5Block7iterateINS_10SkipNullFnINS_5OopFnI10OopClosureEEEEEEbT_(ptr noundef nonnull align 8 dereferenceable(576) %26, ptr %29)
  br i1 %30, label %32, label %31

31:                                               ; preds = %22
  store i1 false, ptr %3, align 1
  br label %37

32:                                               ; preds = %22
  br label %33

33:                                               ; preds = %32
  %34 = load i64, ptr %8, align 8
  %35 = add i64 %34, 1
  store i64 %35, ptr %8, align 8
  br label %18, !llvm.loop !24

36:                                               ; preds = %18
  store i1 true, ptr %3, align 1
  br label %37

37:                                               ; preds = %36, %31
  %38 = load i1, ptr %3, align 1
  ret i1 %38
}

; Function Attrs: mustprogress nounwind uwtable
define linkonce_odr hidden void @_ZN10OopStorage10SkipNullFnINS_5OopFnI10OopClosureEEEC2ES3_(ptr noundef nonnull align 8 dereferenceable(8) %0, ptr %1) unnamed_addr #1 comdat align 2 {
  %3 = alloca %"class.OopStorage::OopFn", align 8
  %4 = alloca ptr, align 8
  %5 = getelementptr inbounds %"class.OopStorage::OopFn", ptr %3, i32 0, i32 0
  store ptr %1, ptr %5, align 8
  store ptr %0, ptr %4, align 8
  %6 = load ptr, ptr %4, align 8
  %7 = getelementptr inbounds %"class.OopStorage::SkipNullFn", ptr %6, i32 0, i32 0
  call void @llvm.memcpy.p0.p0.i64(ptr align 8 %7, ptr align 8 %3, i64 8, i1 false)
  ret void
}

; Function Attrs: mustprogress nounwind uwtable
define linkonce_odr hidden void @_ZN10OopStorage5OopFnI10OopClosureEC2EPS1_(ptr noundef nonnull align 8 dereferenceable(8) %0, ptr noundef %1) unnamed_addr #1 comdat align 2 {
  %3 = alloca ptr, align 8
  %4 = alloca ptr, align 8
  store ptr %0, ptr %3, align 8
  store ptr %1, ptr %4, align 8
  %5 = load ptr, ptr %3, align 8
  %6 = getelementptr inbounds %"class.OopStorage::OopFn", ptr %5, i32 0, i32 0
  %7 = load ptr, ptr %4, align 8
  store ptr %7, ptr %6, align 8
  ret void
}

; Function Attrs: mustprogress nounwind uwtable
define linkonce_odr hidden noundef zeroext i1 @_ZN10OopStorage17iterate_safepointINS_10SkipNullFnINS_5OopFnI10OopClosureEEEEEEbT_(ptr noundef nonnull align 8 dereferenceable(126) %0, ptr %1) #1 comdat align 2 {
  %3 = alloca %"class.OopStorage::SkipNullFn", align 8
  %4 = alloca ptr, align 8
  %5 = alloca %"class.OopStorage::SkipNullFn", align 8
  %6 = getelementptr inbounds %"class.OopStorage::SkipNullFn", ptr %3, i32 0, i32 0
  %7 = getelementptr inbounds %"class.OopStorage::OopFn", ptr %6, i32 0, i32 0
  store ptr %1, ptr %7, align 8
  store ptr %0, ptr %4, align 8
  %8 = load ptr, ptr %4, align 8
  call void @llvm.memcpy.p0.p0.i64(ptr align 8 %5, ptr align 8 %3, i64 8, i1 false)
  %9 = getelementptr inbounds %"class.OopStorage::SkipNullFn", ptr %5, i32 0, i32 0
  %10 = getelementptr inbounds %"class.OopStorage::OopFn", ptr %9, i32 0, i32 0
  %11 = load ptr, ptr %10, align 8
  %12 = call noundef zeroext i1 @_ZN10OopStorage12iterate_implINS_10SkipNullFnINS_5OopFnI10OopClosureEEEES_EEbT_PT0_(ptr %11, ptr noundef %8)
  ret i1 %12
}

; Function Attrs: mustprogress nounwind uwtable
define linkonce_odr hidden ptr @_ZN10OopStorage12skip_null_fnINS_5OopFnI10OopClosureEEEENS_10SkipNullFnIT_EES5_(ptr %0) #1 comdat align 2 {
  %2 = alloca %"class.OopStorage::SkipNullFn", align 8
  %3 = alloca %"class.OopStorage::OopFn", align 8
  %4 = alloca %"class.OopStorage::OopFn", align 8
  %5 = getelementptr inbounds %"class.OopStorage::OopFn", ptr %3, i32 0, i32 0
  store ptr %0, ptr %5, align 8
  call void @llvm.memcpy.p0.p0.i64(ptr align 8 %4, ptr align 8 %3, i64 8, i1 false)
  %6 = getelementptr inbounds %"class.OopStorage::OopFn", ptr %4, i32 0, i32 0
  %7 = load ptr, ptr %6, align 8
  call void @_ZN10OopStorage10SkipNullFnINS_5OopFnI10OopClosureEEEC2ES3_(ptr noundef nonnull align 8 dereferenceable(8) %2, ptr %7)
  %8 = getelementptr inbounds %"class.OopStorage::SkipNullFn", ptr %2, i32 0, i32 0
  %9 = getelementptr inbounds %"class.OopStorage::OopFn", ptr %8, i32 0, i32 0
  %10 = load ptr, ptr %9, align 8
  ret ptr %10
}

; Function Attrs: mustprogress nounwind uwtable
define linkonce_odr hidden ptr @_ZN10OopStorage6oop_fnI10OopClosureEENS_5OopFnIT_EEPS3_(ptr noundef %0) #1 comdat align 2 {
  %2 = alloca %"class.OopStorage::OopFn", align 8
  %3 = alloca ptr, align 8
  store ptr %0, ptr %3, align 8
  %4 = load ptr, ptr %3, align 8
  call void @_ZN10OopStorage5OopFnI10OopClosureEC2EPS1_(ptr noundef nonnull align 8 dereferenceable(8) %2, ptr noundef %4)
  %5 = getelementptr inbounds %"class.OopStorage::OopFn", ptr %2, i32 0, i32 0
  %6 = load ptr, ptr %5, align 8
  ret ptr %6
}

; Function Attrs: mustprogress nounwind uwtable
define linkonce_odr hidden void @_ZN10OopStorage12weak_oops_doI10OopClosureEEvPT_(ptr noundef nonnull align 8 dereferenceable(126) %0, ptr noundef %1) #1 comdat align 2 {
  %3 = alloca ptr, align 8
  %4 = alloca ptr, align 8
  %5 = alloca %"class.OopStorage::SkipNullFn", align 8
  %6 = alloca %"class.OopStorage::OopFn", align 8
  store ptr %0, ptr %3, align 8
  store ptr %1, ptr %4, align 8
  %7 = load ptr, ptr %3, align 8
  %8 = load ptr, ptr %4, align 8
  %9 = call ptr @_ZN10OopStorage6oop_fnI10OopClosureEENS_5OopFnIT_EEPS3_(ptr noundef %8)
  %10 = getelementptr inbounds %"class.OopStorage::OopFn", ptr %6, i32 0, i32 0
  store ptr %9, ptr %10, align 8
  %11 = getelementptr inbounds %"class.OopStorage::OopFn", ptr %6, i32 0, i32 0
  %12 = load ptr, ptr %11, align 8
  %13 = call ptr @_ZN10OopStorage12skip_null_fnINS_5OopFnI10OopClosureEEEENS_10SkipNullFnIT_EES5_(ptr %12)
  %14 = getelementptr inbounds %"class.OopStorage::SkipNullFn", ptr %5, i32 0, i32 0
  %15 = getelementptr inbounds %"class.OopStorage::OopFn", ptr %14, i32 0, i32 0
  store ptr %13, ptr %15, align 8
  %16 = getelementptr inbounds %"class.OopStorage::SkipNullFn", ptr %5, i32 0, i32 0
  %17 = getelementptr inbounds %"class.OopStorage::OopFn", ptr %16, i32 0, i32 0
  %18 = load ptr, ptr %17, align 8
  %19 = call noundef zeroext i1 @_ZN10OopStorage17iterate_safepointINS_10SkipNullFnINS_5OopFnI10OopClosureEEEEEEbT_(ptr noundef nonnull align 8 dereferenceable(126) %7, ptr %18)
  ret void
}

; Function Attrs: mustprogress nounwind uwtable
define hidden noundef ptr @_ZN10JNIHandles19weak_global_handlesEv() #1 align 2 {
  %1 = load ptr, ptr @_ZN10JNIHandles20_weak_global_handlesE, align 8
  ret ptr %1
}

; Function Attrs: mustprogress nounwind uwtable
define hidden void @_ZN10JNIHandles12weak_oops_doEP10OopClosure(ptr noundef %0) #1 align 2 {
  %2 = alloca ptr, align 8
  store ptr %0, ptr %2, align 8
  %3 = call noundef ptr @_ZN10JNIHandles19weak_global_handlesEv()
  %4 = load ptr, ptr %2, align 8
  call void @_ZN10OopStorage12weak_oops_doI10OopClosureEEvPT_(ptr noundef nonnull align 8 dereferenceable(126) %3, ptr noundef %4)
  ret void
}